target datalayout = "e-m:e-p270:32:32-p271:32:32-p272:64:64-i64:64-i128:128-f80:128-n8:16:32:64-S128"
target triple = "x86_64-pc-linux-gnu"

; Function Attrs: mustprogress nounwind uwtable
define dso_local noundef i32 @_ZNK4llvm16AArch64InstrInfo20getCombinerObjectiveEj(ptr noundef nonnull align 8 dereferenceable(408) %0, i32 noundef %1) unnamed_addr #0 align 2 {
  %3 = alloca i32, align 4
  %4 = alloca ptr, align 8
  %5 = alloca i32, align 4
  store ptr %0, ptr %4, align 8
  store i32 %1, ptr %5, align 4
  %6 = load ptr, ptr %4, align 8
  %7 = load i32, ptr %5, align 4
  switch i32 %7, label %9 [
    i32 4, label %8
    i32 5, label %8
  ]

8:                                                ; preds = %2, %2
  store i32 0, ptr %3, align 4
  br label %12

9:                                                ; preds = %2
  %10 = load i32, ptr %5, align 4
  %11 = call noundef i32 @_ZNK4llvm15TargetInstrInfo20getCombinerObjectiveEj(ptr noundef nonnull align 8 dereferenceable(80) %6, i32 noundef %10)
  store i32 %11, ptr %3, align 4
  br label %12

12:                                               ; preds = %9, %8
  %13 = load i32, ptr %3, align 4
  ret i32 %13
}