; Function Attrs: mustprogress nounwind uwtable
define dso_local noundef i32 @_ZNK4llvm16AArch64InstrInfo20getCombinerObjectiveEj(ptr noundef nonnull align 8 dereferenceable(408) %0, i32 noundef %1) unnamed_addr #1 align 2 {
  %3 = and i32 %1, -2
  %switch = icmp eq i32 %3, 4
  br i1 %switch, label %6, label %4

4:                                                ; preds = %2
  %5 = tail call noundef i32 @_ZNK4llvm15TargetInstrInfo20getCombinerObjectiveEj(ptr noundef nonnull align 8 dereferenceable(80) %0, i32 noundef %1) #27
  br label %6

6:                                                ; preds = %2, %4
  %.0 = phi i32 [ %5, %4 ], [ 0, %2 ]
  ret i32 %.0
}